target datalayout = "e-m:e-p270:32:32-p271:32:32-p272:64:64-i64:64-i128:128-f80:128-n8:16:32:64-S128"
target triple = "x86_64-pc-linux-gnu"

%class.VisibilityCheck = type { ptr, ptr, ptr, i32, ptr, %"class.std::vector", ptr }
%"class.std::vector" = type { %"struct.std::_Vector_base" }
%"struct.std::_Vector_base" = type { %"struct.std::_Vector_base<unsigned char, std::allocator<unsigned char>>::_Vector_impl" }
%"struct.std::_Vector_base<unsigned char, std::allocator<unsigned char>>::_Vector_impl" = type { %"struct.std::_Vector_base<unsigned char, std::allocator<unsigned char>>::_Vector_impl_data" }
%"struct.std::_Vector_base<unsigned char, std::allocator<unsigned char>>::_Vector_impl_data" = type { ptr, ptr, ptr }

; Function Attrs: mustprogress uwtable
define linkonce_odr void @_ZN6GlShotIN3vcg4ShotIfNS0_8Matrix44IfEEEEE9UnsetViewEv() #1 comdat align 2 {
  call void @glPushAttrib(i32 noundef 4096)
  call void @glMatrixMode(i32 noundef 5888)
  call void @glPopMatrix()
  call void @glMatrixMode(i32 noundef 5889)
  call void @glPopMatrix()
  call void @glPopAttrib()
  ret void
}

; Function Attrs: mustprogress uwtable
define void @_ZN23VisibilityCheck_VMV20027releaseEv(ptr noundef nonnull align 8 dereferenceable(112) %0) #1 align 2 {
  %2 = alloca ptr, align 8
  store ptr %0, ptr %2, align 8
  %3 = load ptr, ptr %2, align 8
  call void @_ZN6GlShotIN3vcg4ShotIfNS0_8Matrix44IfEEEEE9UnsetViewEv()
  %4 = getelementptr inbounds %class.VisibilityCheck, ptr %3, i32 0, i32 1
  %5 = load ptr, ptr %4, align 8
  call void @_ZN3glw7Context25unbindReadDrawFramebufferEv(ptr noundef nonnull align 8 dereferenceable(120) %5)
  call void @glPopAttrib()
  ret void
}