; Function Attrs: mustprogress uwtable
define void @_ZN23VisibilityCheck_VMV20027releaseEv(ptr nocapture noundef nonnull readonly align 8 dereferenceable(112) %0) local_unnamed_addr #1 align 2 {
  tail call void @glPushAttrib(i32 noundef 4096)
  tail call void @glMatrixMode(i32 noundef 5888)
  tail call void @glPopMatrix()
  tail call void @glMatrixMode(i32 noundef 5889)
  tail call void @glPopMatrix()
  tail call void @glPopAttrib()
  %2 = getelementptr inbounds i8, ptr %0, i64 8
  %3 = load ptr, ptr %2, align 8
  tail call void @_ZN3glw7Context25unbindReadDrawFramebufferEv(ptr noundef nonnull align 8 dereferenceable(120) %3)
  tail call void @glPopAttrib()
  ret void
}